; Function Attrs: nounwind uwtable
define internal i64 @procfs_write(ptr noundef %0, ptr noundef %1, i64 noundef %2) #0 {
  %4 = getelementptr inbounds nuw i8, ptr %0, i64 16
  %5 = load ptr, ptr %4, align 8
  %6 = load ptr, ptr %5, align 8
  %7 = getelementptr inbounds nuw i8, ptr %6, i64 8
  %8 = load ptr, ptr %7, align 8
  %9 = getelementptr inbounds nuw i8, ptr %8, i64 24
  %10 = load ptr, ptr %9, align 8
  %.not = icmp eq ptr %10, null
  br i1 %.not, label %13, label %11

11:                                               ; preds = %3
  %12 = tail call i64 %10(ptr noundef nonnull %0, ptr noundef %1, i64 noundef %2) #12
  br label %13

13:                                               ; preds = %3, %11
  %.0 = phi i64 [ %12, %11 ], [ 0, %3 ]
  ret i64 %.0
}